; Function Attrs: mustprogress uwtable
define void @_ZNK6casadi7Project10ad_reverseERKSt6vectorIS1_INS_2MXESaIS2_EESaIS4_EERS6_(ptr noundef nonnull align 8 dereferenceable(64) %0, ptr nocapture noundef nonnull readonly align 8 dereferenceable(24) %1, ptr nocapture noundef nonnull readonly align 8 dereferenceable(24) %2) unnamed_addr #3 align 2 personality ptr @__gxx_personality_v0 {
  %4 = alloca %"class.casadi::MX", align 8
  %5 = alloca %"class.casadi::MX", align 8
  %6 = alloca %"class.casadi::Sparsity", align 8
  %7 = getelementptr inbounds i8, ptr %1, i64 8
  %8 = load ptr, ptr %7, align 8
  %9 = load ptr, ptr %1, align 8
  %10 = ptrtoint ptr %8 to i64
  %11 = ptrtoint ptr %9 to i64
  %12 = sub i64 %10, %11
  %13 = icmp sgt i64 %12, 0
  br i1 %13, label %.lr.ph, label %._crit_edge

.lr.ph:                                           ; preds = %3
  %14 = udiv exact i64 %12, 24
  %15 = getelementptr inbounds i8, ptr %0, i64 32
  %16 = getelementptr inbounds i8, ptr %0, i64 40
  %17 = getelementptr inbounds i8, ptr %0, i64 56
  %18 = tail call i64 @llvm.umax.i64(i64 %14, i64 1)
  br label %19

19:                                               ; preds = %.lr.ph, %33
  %.01113 = phi i64 [ 0, %.lr.ph ], [ %34, %33 ]
  %20 = load ptr, ptr %16, align 8
  %21 = load ptr, ptr %15, align 8
  %.not.i.i.i.not = icmp eq ptr %20, %21
  br i1 %.not.i.i.i.not, label %22, label %_ZNK6casadi6MXNode3depEx.exit

22:                                               ; preds = %19
  call void (ptr, ...) @_ZSt24__throw_out_of_range_fmtPKcz(ptr noundef nonnull @.str.10, i64 noundef 0, i64 noundef 0) #17
  unreachable

_ZNK6casadi6MXNode3depEx.exit:                    ; preds = %19
  %23 = load ptr, ptr %1, align 8
  %24 = getelementptr inbounds %"class.std::vector", ptr %23, i64 %.01113
  %25 = load ptr, ptr %24, align 8
  %26 = call noundef nonnull align 8 dereferenceable(8) ptr @_ZNK6casadi2MX8sparsityEv(ptr noundef nonnull align 8 dereferenceable(8) %21)
  call void @_ZNK6casadi8SparsitymlERKS0_(ptr dead_on_unwind nonnull writable sret(%"class.casadi::Sparsity") align 8 %6, ptr noundef nonnull align 8 dereferenceable(8) %17, ptr noundef nonnull align 8 dereferenceable(8) %26)
  invoke void @_ZN6casadi2MX7projectERKS0_RKNS_8SparsityEb(ptr dead_on_unwind nonnull writable sret(%"class.casadi::MX") align 8 %5, ptr noundef nonnull align 8 dereferenceable(8) %25, ptr noundef nonnull align 8 dereferenceable(8) %6, i1 noundef zeroext true)
          to label %_ZN6casadi7projectERKNS_2MXERKNS_8SparsityEb.exit unwind label %35

_ZN6casadi7projectERKNS_2MXERKNS_8SparsityEb.exit: ; preds = %_ZNK6casadi6MXNode3depEx.exit
  %27 = load ptr, ptr %2, align 8
  %28 = getelementptr inbounds %"class.std::vector", ptr %27, i64 %.01113
  %29 = load ptr, ptr %28, align 8
  call void @llvm.lifetime.start.p0(i64 8, ptr nonnull %4)
  invoke void @_ZN6casadi2MX6binaryExRKS0_S2_(ptr dead_on_unwind nonnull writable sret(%"class.casadi::MX") align 8 %4, i64 noundef 1, ptr noundef nonnull align 8 dereferenceable(8) %29, ptr noundef nonnull align 8 dereferenceable(8) %5)
          to label %.noexc unwind label %37

.noexc:                                           ; preds = %_ZN6casadi7projectERKNS_2MXERKNS_8SparsityEb.exit
  %30 = invoke noundef nonnull align 8 dereferenceable(8) ptr @_ZN6casadi12SharedObjectaSERKS0_(ptr noundef nonnull align 8 dereferenceable(8) %29, ptr noundef nonnull align 8 dereferenceable(8) %4)
          to label %33 unwind label %31

31:                                               ; preds = %.noexc
  %32 = landingpad { ptr, i32 }
          cleanup
  call void @_ZN6casadi2MXD1Ev(ptr noundef nonnull align 8 dereferenceable(8) %4) #16
  br label %.body

33:                                               ; preds = %.noexc
  call void @_ZN6casadi2MXD1Ev(ptr noundef nonnull align 8 dereferenceable(8) %4) #16
  call void @llvm.lifetime.end.p0(i64 8, ptr nonnull %4)
  call void @_ZN6casadi2MXD1Ev(ptr noundef nonnull align 8 dereferenceable(8) %5) #16
  call void @_ZN6casadi12SharedObjectD2Ev(ptr noundef nonnull align 8 dereferenceable(8) %6) #16
  %34 = add nuw nsw i64 %.01113, 1
  %exitcond.not = icmp eq i64 %34, %18
  br i1 %exitcond.not, label %._crit_edge, label %19, !llvm.loop !14

35:                                               ; preds = %_ZNK6casadi6MXNode3depEx.exit
  %36 = landingpad { ptr, i32 }
          cleanup
  br label %39

37:                                               ; preds = %_ZN6casadi7projectERKNS_2MXERKNS_8SparsityEb.exit
  %38 = landingpad { ptr, i32 }
          cleanup
  br label %.body

.body:                                            ; preds = %31, %37
  %eh.lpad-body = phi { ptr, i32 } [ %38, %37 ], [ %32, %31 ]
  call void @_ZN6casadi2MXD1Ev(ptr noundef nonnull align 8 dereferenceable(8) %5) #16
  br label %39

39:                                               ; preds = %.body, %35
  %.pn = phi { ptr, i32 } [ %eh.lpad-body, %.body ], [ %36, %35 ]
  call void @_ZN6casadi12SharedObjectD2Ev(ptr noundef nonnull align 8 dereferenceable(8) %6) #16
  resume { ptr, i32 } %.pn

._crit_edge:                                      ; preds = %33, %3
  ret void
}